; Function Attrs: mustprogress uwtable
define void @_ZN4base11CommandLine17ResetStringPiecesEv(ptr noundef nonnull align 8 dereferenceable(128) %0) local_unnamed_addr #0 align 2 personality ptr @__gxx_personality_v0 {
  %2 = alloca %"class.base::BasicStringPiece", align 8
  %3 = getelementptr inbounds nuw i8, ptr %0, i64 72
  %4 = getelementptr inbounds nuw i8, ptr %0, i64 88
  %5 = load ptr, ptr %4, align 8, !tbaa !23
  invoke void @_ZNSt8_Rb_treeIN4base16BasicStringPieceINSt7__cxx1112basic_stringIcSt11char_traitsIcESaIcEEEEESt4pairIKS8_PKS7_ESt10_Select1stISD_ESt4lessIS8_ESaISD_EE8_M_eraseEPSt13_Rb_tree_nodeISD_E(ptr noundef nonnull align 8 dereferenceable(48) %3, ptr noundef %5)
          to label %_ZNSt3mapIN4base16BasicStringPieceINSt7__cxx1112basic_stringIcSt11char_traitsIcESaIcEEEEEPKS7_St4lessIS8_ESaISt4pairIKS8_SA_EEE5clearEv.exit unwind label %6

6:                                                ; preds = %1
  %7 = landingpad { ptr, i32 }
          catch ptr null
  %8 = extractvalue { ptr, i32 } %7, 0
  tail call void @__clang_call_terminate(ptr %8) #22
  unreachable

_ZNSt3mapIN4base16BasicStringPieceINSt7__cxx1112basic_stringIcSt11char_traitsIcESaIcEEEEEPKS7_St4lessIS8_ESaISt4pairIKS8_SA_EEE5clearEv.exit: ; preds = %1
  %9 = getelementptr inbounds nuw i8, ptr %0, i64 80
  store ptr null, ptr %4, align 8, !tbaa !23
  %10 = getelementptr inbounds nuw i8, ptr %0, i64 96
  store ptr %9, ptr %10, align 8, !tbaa !24
  %11 = getelementptr inbounds nuw i8, ptr %0, i64 104
  store ptr %9, ptr %11, align 8, !tbaa !25
  %12 = getelementptr inbounds nuw i8, ptr %0, i64 112
  store i64 0, ptr %12, align 8, !tbaa !26
  %13 = getelementptr inbounds nuw i8, ptr %0, i64 48
  %14 = load ptr, ptr %13, align 8, !tbaa !24
  %15 = getelementptr inbounds nuw i8, ptr %0, i64 32
  %.not8 = icmp eq ptr %14, %15
  br i1 %.not8, label %._crit_edge, label %.lr.ph

.lr.ph:                                           ; preds = %_ZNSt3mapIN4base16BasicStringPieceINSt7__cxx1112basic_stringIcSt11char_traitsIcESaIcEEEEEPKS7_St4lessIS8_ESaISt4pairIKS8_SA_EEE5clearEv.exit
  %16 = getelementptr inbounds nuw i8, ptr %2, i64 8
  br label %17

._crit_edge:                                      ; preds = %17, %_ZNSt3mapIN4base16BasicStringPieceINSt7__cxx1112basic_stringIcSt11char_traitsIcESaIcEEEEEPKS7_St4lessIS8_ESaISt4pairIKS8_SA_EEE5clearEv.exit
  ret void

17:                                               ; preds = %.lr.ph, %17
  %.sroa.05.09 = phi ptr [ %14, %.lr.ph ], [ %24, %17 ]
  %18 = getelementptr inbounds nuw i8, ptr %.sroa.05.09, i64 32
  %19 = getelementptr inbounds nuw i8, ptr %.sroa.05.09, i64 64
  call void @llvm.lifetime.start.p0(i64 16, ptr nonnull %2) #21
  %20 = load ptr, ptr %18, align 8, !tbaa !42
  store ptr %20, ptr %2, align 8, !tbaa !57
  %21 = getelementptr inbounds nuw i8, ptr %.sroa.05.09, i64 40
  %22 = load i64, ptr %21, align 8, !tbaa !13
  store i64 %22, ptr %16, align 8, !tbaa !59
  %23 = call noundef nonnull align 8 dereferenceable(8) ptr @_ZNSt3mapIN4base16BasicStringPieceINSt7__cxx1112basic_stringIcSt11char_traitsIcESaIcEEEEEPKS7_St4lessIS8_ESaISt4pairIKS8_SA_EEEixEOS8_(ptr noundef nonnull align 8 dereferenceable(48) %3, ptr noundef nonnull align 8 dereferenceable(16) %2)
  store ptr %19, ptr %23, align 8, !tbaa !48
  call void @llvm.lifetime.end.p0(i64 16, ptr nonnull %2) #21
  %24 = call noundef ptr @_ZSt18_Rb_tree_incrementPSt18_Rb_tree_node_base(ptr noundef %.sroa.05.09) #25
  %.not = icmp eq ptr %24, %15
  br i1 %.not, label %._crit_edge, label %17
}